; ModuleID = '16/43.c'
source_filename = "16/43.c"
target datalayout = "e-m:e-p270:32:32-p271:32:32-p272:64:64-i64:64-f80:128-n8:16:32:64-S128"
target triple = "x86_64-pc-linux-gnu"

@.str = private unnamed_addr constant [11 x i8] c"%c%c%c%c%c\00", align 1
@.str.1 = private unnamed_addr constant [9 x i8] c"%c%c%c%c\00", align 1
@.str.2 = private unnamed_addr constant [7 x i8] c"%c%c%c\00", align 1
@.str.3 = private unnamed_addr constant [5 x i8] c"%c%c\00", align 1
@.str.4 = private unnamed_addr constant [3 x i8] c"%c\00", align 1
@.str.5 = private unnamed_addr constant [7 x i8] c"error\0A\00", align 1

; Function Attrs: noinline nounwind uwtable
define dso_local i32 @main() #0 {
  %1 = alloca i32, align 4
  %2 = alloca i8, align 1
  %3 = alloca i8, align 1
  %4 = alloca i8, align 1
  %5 = alloca i8, align 1
  %6 = alloca i8, align 1
  store i32 0, i32* %1, align 4
  %7 = call i32 @getchar()
  %8 = trunc i32 %7 to i8
  store i8 %8, i8* %2, align 1
  %9 = load i8, i8* %2, align 1
  %10 = sext i8 %9 to i32
  %11 = icmp sle i32 %10, 57
  br i1 %11, label %12, label %100

12:                                               ; preds = %0
  %13 = load i8, i8* %2, align 1
  %14 = sext i8 %13 to i32
  %15 = icmp sge i32 %14, 48
  br i1 %15, label %16, label %100

16:                                               ; preds = %12
  %17 = call i32 @getchar()
  %18 = trunc i32 %17 to i8
  store i8 %18, i8* %3, align 1
  %19 = load i8, i8* %3, align 1
  %20 = sext i8 %19 to i32
  %21 = icmp sle i32 %20, 57
  br i1 %21, label %22, label %95

22:                                               ; preds = %16
  %23 = load i8, i8* %3, align 1
  %24 = sext i8 %23 to i32
  %25 = icmp sge i32 %24, 48
  br i1 %25, label %26, label %95

26:                                               ; preds = %22
  %27 = call i32 @getchar()
  %28 = trunc i32 %27 to i8
  store i8 %28, i8* %4, align 1
  %29 = load i8, i8* %4, align 1
  %30 = sext i8 %29 to i32
  %31 = icmp sle i32 %30, 57
  br i1 %31, label %32, label %88

32:                                               ; preds = %26
  %33 = load i8, i8* %4, align 1
  %34 = sext i8 %33 to i32
  %35 = icmp sge i32 %34, 48
  br i1 %35, label %36, label %88

36:                                               ; preds = %32
  %37 = call i32 @getchar()
  %38 = trunc i32 %37 to i8
  store i8 %38, i8* %5, align 1
  %39 = load i8, i8* %5, align 1
  %40 = sext i8 %39 to i32
  %41 = icmp sle i32 %40, 57
  br i1 %41, label %42, label %79

42:                                               ; preds = %36
  %43 = load i8, i8* %5, align 1
  %44 = sext i8 %43 to i32
  %45 = icmp sge i32 %44, 48
  br i1 %45, label %46, label %79

46:                                               ; preds = %42
  %47 = call i32 @getchar()
  %48 = trunc i32 %47 to i8
  store i8 %48, i8* %6, align 1
  %49 = load i8, i8* %6, align 1
  %50 = sext i8 %49 to i32
  %51 = icmp sle i32 %50, 57
  br i1 %51, label %52, label %68

52:                                               ; preds = %46
  %53 = load i8, i8* %6, align 1
  %54 = sext i8 %53 to i32
  %55 = icmp sge i32 %54, 48
  br i1 %55, label %56, label %68

56:                                               ; preds = %52
  %57 = load i8, i8* %6, align 1
  %58 = sext i8 %57 to i32
  %59 = load i8, i8* %5, align 1
  %60 = sext i8 %59 to i32
  %61 = load i8, i8* %4, align 1
  %62 = sext i8 %61 to i32
  %63 = load i8, i8* %3, align 1
  %64 = sext i8 %63 to i32
  %65 = load i8, i8* %2, align 1
  %66 = sext i8 %65 to i32
  %67 = call i32 (i8*, ...) @printf(i8* getelementptr inbounds ([11 x i8], [11 x i8]* @.str, i64 0, i64 0), i32 %58, i32 %60, i32 %62, i32 %64, i32 %66)
  br label %78

68:                                               ; preds = %52, %46
  %69 = load i8, i8* %5, align 1
  %70 = sext i8 %69 to i32
  %71 = load i8, i8* %4, align 1
  %72 = sext i8 %71 to i32
  %73 = load i8, i8* %3, align 1
  %74 = sext i8 %73 to i32
  %75 = load i8, i8* %2, align 1
  %76 = sext i8 %75 to i32
  %77 = call i32 (i8*, ...) @printf(i8* getelementptr inbounds ([9 x i8], [9 x i8]* @.str.1, i64 0, i64 0), i32 %70, i32 %72, i32 %74, i32 %76)
  br label %78

78:                                               ; preds = %68, %56
  br label %87

79:                                               ; preds = %42, %36
  %80 = load i8, i8* %4, align 1
  %81 = sext i8 %80 to i32
  %82 = load i8, i8* %3, align 1
  %83 = sext i8 %82 to i32
  %84 = load i8, i8* %2, align 1
  %85 = sext i8 %84 to i32
  %86 = call i32 (i8*, ...) @printf(i8* getelementptr inbounds ([7 x i8], [7 x i8]* @.str.2, i64 0, i64 0), i32 %81, i32 %83, i32 %85)
  br label %87

87:                                               ; preds = %79, %78
  br label %94

88:                                               ; preds = %32, %26
  %89 = load i8, i8* %3, align 1
  %90 = sext i8 %89 to i32
  %91 = load i8, i8* %2, align 1
  %92 = sext i8 %91 to i32
  %93 = call i32 (i8*, ...) @printf(i8* getelementptr inbounds ([5 x i8], [5 x i8]* @.str.3, i64 0, i64 0), i32 %90, i32 %92)
  br label %94

94:                                               ; preds = %88, %87
  br label %99

95:                                               ; preds = %22, %16
  %96 = load i8, i8* %2, align 1
  %97 = sext i8 %96 to i32
  %98 = call i32 (i8*, ...) @printf(i8* getelementptr inbounds ([3 x i8], [3 x i8]* @.str.4, i64 0, i64 0), i32 %97)
  br label %99

99:                                               ; preds = %95, %94
  br label %102

100:                                              ; preds = %12, %0
  %101 = call i32 (i8*, ...) @printf(i8* getelementptr inbounds ([7 x i8], [7 x i8]* @.str.5, i64 0, i64 0))
  br label %102

102:                                              ; preds = %100, %99
  ret i32 0
}

declare dso_local i32 @getchar() #1

declare dso_local i32 @printf(i8*, ...) #1


!llvm.module.flags = !{!0}
!llvm.ident = !{!1}

!0 = !{i32 1, !"wchar_size", i32 4}
!1 = !{!"clang version 10.0.0-4ubuntu1 "}
