; ModuleID = 'source-C-CXX/15/43.c'
source_filename = "source-C-CXX/15/43.c"
target datalayout = "e-m:e-p270:32:32-p271:32:32-p272:64:64-i64:64-f80:128-n8:16:32:64-S128"
target triple = "x86_64-pc-linux-gnu"

%struct._IO_FILE = type { i32, i8*, i8*, i8*, i8*, i8*, i8*, i8*, i8*, i8*, i8*, i8*, %struct._IO_marker*, %struct._IO_FILE*, i32, i32, i64, i16, i8, [1 x i8], i8*, i64, %struct._IO_codecvt*, %struct._IO_wide_data*, %struct._IO_FILE*, i8*, i64, i32, [20 x i8] }
%struct._IO_marker = type opaque
%struct._IO_codecvt = type opaque
%struct._IO_wide_data = type opaque

@.str = private unnamed_addr constant [11 x i8] c"%c%c%c%c%c\00", align 1
@.str.1 = private unnamed_addr constant [9 x i8] c"%c%c%c%c\00", align 1
@.str.2 = private unnamed_addr constant [7 x i8] c"%c%c%c\00", align 1
@.str.3 = private unnamed_addr constant [5 x i8] c"%c%c\00", align 1
@stdin = external local_unnamed_addr global %struct._IO_FILE*, align 8
@str = private unnamed_addr constant [6 x i8] c"error\00", align 1

; Function Attrs: nofree nounwind sspstrong uwtable
define dso_local i32 @main() local_unnamed_addr #0 {
  %1 = load %struct._IO_FILE*, %struct._IO_FILE** @stdin, align 8, !tbaa !5
  %2 = tail call i32 @getc(%struct._IO_FILE* %1) #3
  %3 = shl i32 %2, 24
  %4 = ashr exact i32 %3, 24
  %5 = add i32 %3, -788529153
  %6 = icmp ult i32 %5, 184549375
  br i1 %6, label %7, label %45

7:                                                ; preds = %0
  %8 = load %struct._IO_FILE*, %struct._IO_FILE** @stdin, align 8, !tbaa !5
  %9 = tail call i32 @getc(%struct._IO_FILE* %8) #3
  %10 = shl i32 %9, 24
  %11 = ashr exact i32 %10, 24
  %12 = add i32 %10, -788529153
  %13 = icmp ult i32 %12, 184549375
  br i1 %13, label %14, label %43

14:                                               ; preds = %7
  %15 = load %struct._IO_FILE*, %struct._IO_FILE** @stdin, align 8, !tbaa !5
  %16 = tail call i32 @getc(%struct._IO_FILE* %15) #3
  %17 = shl i32 %16, 24
  %18 = ashr exact i32 %17, 24
  %19 = add i32 %17, -788529153
  %20 = icmp ult i32 %19, 184549375
  br i1 %20, label %21, label %41

21:                                               ; preds = %14
  %22 = load %struct._IO_FILE*, %struct._IO_FILE** @stdin, align 8, !tbaa !5
  %23 = tail call i32 @getc(%struct._IO_FILE* %22) #3
  %24 = shl i32 %23, 24
  %25 = ashr exact i32 %24, 24
  %26 = add i32 %24, -788529153
  %27 = icmp ult i32 %26, 184549375
  br i1 %27, label %28, label %39

28:                                               ; preds = %21
  %29 = load %struct._IO_FILE*, %struct._IO_FILE** @stdin, align 8, !tbaa !5
  %30 = tail call i32 @getc(%struct._IO_FILE* %29) #3
  %31 = shl i32 %30, 24
  %32 = add i32 %31, -788529153
  %33 = icmp ult i32 %32, 184549375
  br i1 %33, label %34, label %37

34:                                               ; preds = %28
  %35 = and i32 %30, 255
  %36 = tail call i32 (i8*, ...) @printf(i8* nonnull dereferenceable(1) getelementptr inbounds ([11 x i8], [11 x i8]* @.str, i64 0, i64 0), i32 %35, i32 %25, i32 %18, i32 %11, i32 %4)
  br label %47

37:                                               ; preds = %28
  %38 = tail call i32 (i8*, ...) @printf(i8* nonnull dereferenceable(1) getelementptr inbounds ([9 x i8], [9 x i8]* @.str.1, i64 0, i64 0), i32 %25, i32 %18, i32 %11, i32 %4)
  br label %47

39:                                               ; preds = %21
  %40 = tail call i32 (i8*, ...) @printf(i8* nonnull dereferenceable(1) getelementptr inbounds ([7 x i8], [7 x i8]* @.str.2, i64 0, i64 0), i32 %18, i32 %11, i32 %4)
  br label %47

41:                                               ; preds = %14
  %42 = tail call i32 (i8*, ...) @printf(i8* nonnull dereferenceable(1) getelementptr inbounds ([5 x i8], [5 x i8]* @.str.3, i64 0, i64 0), i32 %11, i32 %4)
  br label %47

43:                                               ; preds = %7
  %44 = tail call i32 @putchar(i32 %4)
  br label %47

45:                                               ; preds = %0
  %46 = tail call i32 @puts(i8* nonnull dereferenceable(1) getelementptr inbounds ([6 x i8], [6 x i8]* @str, i64 0, i64 0))
  br label %47

47:                                               ; preds = %43, %39, %37, %34, %41, %45
  ret i32 0
}

; Function Attrs: nofree nounwind
declare noundef i32 @printf(i8* nocapture noundef readonly, ...) local_unnamed_addr #1

; Function Attrs: nofree nounwind
declare noundef i32 @getc(%struct._IO_FILE* nocapture noundef) local_unnamed_addr #1

; Function Attrs: nofree nounwind
declare noundef i32 @puts(i8* nocapture noundef readonly) local_unnamed_addr #2

; Function Attrs: nofree nounwind
declare noundef i32 @putchar(i32 noundef) local_unnamed_addr #2


!llvm.module.flags = !{!0, !1, !2, !3}
!llvm.ident = !{!4}

!0 = !{i32 1, !"wchar_size", i32 4}
!1 = !{i32 7, !"PIC Level", i32 2}
!2 = !{i32 7, !"PIE Level", i32 2}
!3 = !{i32 7, !"uwtable", i32 1}
!4 = !{!"clang version 13.0.0"}
!5 = !{!6, !6, i64 0}
!6 = !{!"any pointer", !7, i64 0}
!7 = !{!"omnipotent char", !8, i64 0}
!8 = !{!"Simple C/C++ TBAA"}
